target datalayout = "e-m:e-p270:32:32-p271:32:32-p272:64:64-i64:64-i128:128-f80:128-n8:16:32:64-S128"
target triple = "x86_64-pc-linux-gnu"

%struct.FFTextReader = type { i32, ptr, [8 x i8], i32, i32, %struct.FFIOContext }
%struct.FFIOContext = type { %struct.AVIOContext, ptr, i32, i32, i64, i64, i64, i64, i32, i32, i32, i64 }
%struct.AVIOContext = type { ptr, ptr, i32, ptr, ptr, ptr, ptr, ptr, ptr, i64, i32, i32, i32, i32, i32, i64, ptr, ptr, ptr, ptr, i32, i32, ptr, ptr, ptr, i32, ptr, i64, i64 }

; Function Attrs: nounwind uwtable
define i32 @ff_text_eof(ptr noundef %0) #0 {
  %2 = alloca ptr, align 8
  store ptr %0, ptr %2, align 8, !tbaa !4
  %3 = load ptr, ptr %2, align 8, !tbaa !4
  %4 = getelementptr inbounds nuw %struct.FFTextReader, ptr %3, i32 0, i32 3
  %5 = load i32, ptr %4, align 8, !tbaa !19
  %6 = load ptr, ptr %2, align 8, !tbaa !4
  %7 = getelementptr inbounds nuw %struct.FFTextReader, ptr %6, i32 0, i32 4
  %8 = load i32, ptr %7, align 4, !tbaa !18
  %9 = icmp sge i32 %5, %8
  br i1 %9, label %10, label %16

10:                                               ; preds = %1
  %11 = load ptr, ptr %2, align 8, !tbaa !4
  %12 = getelementptr inbounds nuw %struct.FFTextReader, ptr %11, i32 0, i32 1
  %13 = load ptr, ptr %12, align 8, !tbaa !10
  %14 = call i32 @avio_feof(ptr noundef %13)
  %15 = icmp ne i32 %14, 0
  br label %16

16:                                               ; preds = %10, %1
  %17 = phi i1 [ false, %1 ], [ %15, %10 ]
  %18 = zext i1 %17 to i32
  ret i32 %18
}