; Function Attrs: nounwind uwtable
define range(i32 0, 2) i32 @ff_text_eof(ptr noundef readonly captures(none) %0) local_unnamed_addr #0 {
  %2 = getelementptr inbounds nuw i8, ptr %0, i64 24
  %3 = load i32, ptr %2, align 8, !tbaa !17
  %4 = getelementptr inbounds nuw i8, ptr %0, i64 28
  %5 = load i32, ptr %4, align 4, !tbaa !16
  %.not = icmp slt i32 %3, %5
  br i1 %.not, label %12, label %6

6:                                                ; preds = %1
  %7 = getelementptr inbounds nuw i8, ptr %0, i64 8
  %8 = load ptr, ptr %7, align 8, !tbaa !4
  %9 = tail call i32 @avio_feof(ptr noundef %8) #11
  %10 = icmp ne i32 %9, 0
  %11 = zext i1 %10 to i32
  br label %12

12:                                               ; preds = %6, %1
  %13 = phi i32 [ 0, %1 ], [ %11, %6 ]
  ret i32 %13
}